target datalayout = "e-m:e-p270:32:32-p271:32:32-p272:64:64-i64:64-i128:128-f80:128-n8:16:32:64-S128"
target triple = "x86_64-pc-linux-gnu"

%struct._object = type { %union.anon.41, ptr }
%union.anon.41 = type { i64 }
%struct.PyMutex = type { i8 }
%struct.llist_node = type { ptr, ptr }
%struct.PyWideStringList = type { i64, ptr }
%struct._pending_call = type { ptr, ptr, i32 }
%struct.PyEvent = type { i8 }
%struct.PyGC_Head = type { i64, i64 }
%struct.pythreads = type { i64, ptr, ptr, ptr, i64, i64 }
%struct.gc_generation = type { %struct.PyGC_Head, i32, i32 }
%struct.gc_generation_stats = type { i64, i64, i64 }
%struct._PyRecursiveMutex = type { %struct.PyMutex, i64, i64 }
%struct._gil_runtime_state = type { i64, ptr, i32, i64, %union.pthread_cond_t, %union.pthread_mutex_t, %union.pthread_cond_t, %union.pthread_mutex_t }
%union.pthread_cond_t = type { %struct.__pthread_cond_s }
%struct.__pthread_cond_s = type { %union.__atomic_wide_counter, %union.__atomic_wide_counter, [2 x i32], [2 x i32], i32, i32, [2 x i32] }
%union.__atomic_wide_counter = type { i64 }
%union.pthread_mutex_t = type { %struct.__pthread_mutex_s }
%struct.__pthread_mutex_s = type { i32, i32, i32, i32, i32, i16, i16, %struct.__pthread_internal_list }
%struct.__pthread_internal_list = type { ptr, ptr }
%struct.codecs_state = type { ptr, ptr, ptr, i32 }
%struct.PyConfig = type { i32, i32, i32, i32, i32, i32, i64, i32, i32, i32, i32, i32, i32, i32, ptr, i32, ptr, ptr, ptr, i32, %struct.PyWideStringList, %struct.PyWideStringList, %struct.PyWideStringList, %struct.PyWideStringList, i32, i32, i32, i32, i32, i32, i32, i32, i32, i32, i32, i32, i32, ptr, ptr, ptr, i32, i32, i32, i32, i32, ptr, ptr, ptr, ptr, i32, %struct.PyWideStringList, ptr, ptr, ptr, ptr, ptr, ptr, ptr, i32, ptr, ptr, ptr, ptr, i32, i32, i32 }
%struct._PyXI_state_t = type { %struct._xid_lookup_state, %struct.xi_exceptions }
%struct._xid_lookup_state = type { %struct._PyXIData_registry_t }
%struct._PyXIData_registry_t = type { i32, i32, %struct.PyMutex, ptr }
%struct.xi_exceptions = type { ptr, ptr, ptr }
%struct._warnings_runtime_state = type { ptr, ptr, ptr, %struct._PyRecursiveMutex, i64 }
%struct.atexit_state = type { ptr, ptr }
%struct._stoptheworld_state = type { %struct.PyMutex, i8, i8, i8, %struct.PyEvent, i64, ptr }
%struct._py_object_state = type { %struct._Py_freelists, i32 }
%struct._Py_freelists = type { %struct._Py_freelist, %struct._Py_freelist, [20 x %struct._Py_freelist], %struct._Py_freelist, %struct._Py_freelist, %struct._Py_freelist, %struct._Py_freelist, %struct._Py_freelist, %struct._Py_freelist, %struct._Py_freelist, %struct._Py_freelist, %struct._Py_freelist, %struct._Py_freelist, %struct._Py_freelist, %struct._Py_freelist, %struct._Py_freelist }
%struct._Py_freelist = type { ptr, i64 }
%struct._Py_unicode_state = type { %struct._Py_unicode_fs_codec, ptr, %struct._Py_unicode_ids }
%struct._Py_unicode_fs_codec = type { ptr, i32, ptr, i32 }
%struct._Py_unicode_ids = type { i64, ptr }
%struct._Py_long_state = type { i32 }
%struct._dtoa_state = type { [8 x ptr], [8 x ptr], [288 x double], ptr }
%struct._func_version_cache_item = type { ptr, ptr }
%struct._py_code_state = type { %struct.PyMutex, ptr }
%struct._Py_exc_state = type { ptr, ptr, i32, ptr }
%struct.ast_state = type { %struct._PyOnceFlag, i32, ptr, ptr, ptr, ptr, ptr, ptr, ptr, ptr, ptr, ptr, ptr, ptr, ptr, ptr, ptr, ptr, ptr, ptr, ptr, ptr, ptr, ptr, ptr, ptr, ptr, ptr, ptr, ptr, ptr, ptr, ptr, ptr, ptr, ptr, ptr, ptr, ptr, ptr, ptr, ptr, ptr, ptr, ptr, ptr, ptr, ptr, ptr, ptr, ptr, ptr, ptr, ptr, ptr, ptr, ptr, ptr, ptr, ptr, ptr, ptr, ptr, ptr, ptr, ptr, ptr, ptr, ptr, ptr, ptr, ptr, ptr, ptr, ptr, ptr, ptr, ptr, ptr, ptr, ptr, ptr, ptr, ptr, ptr, ptr, ptr, ptr, ptr, ptr, ptr, ptr, ptr, ptr, ptr, ptr, ptr, ptr, ptr, ptr, ptr, ptr, ptr, ptr, ptr, ptr, ptr, ptr, ptr, ptr, ptr, ptr, ptr, ptr, ptr, ptr, ptr, ptr, ptr, ptr, ptr, ptr, ptr, ptr, ptr, ptr, ptr, ptr, ptr, ptr, ptr, ptr, ptr, ptr, ptr, ptr, ptr, ptr, ptr, ptr, ptr, ptr, ptr, ptr, ptr, ptr, ptr, ptr, ptr, ptr, ptr, ptr, ptr, ptr, ptr, ptr, ptr, ptr, ptr, ptr, ptr, ptr, ptr, ptr, ptr, ptr, ptr, ptr, ptr, ptr, ptr, ptr, ptr, ptr, ptr, ptr, ptr, ptr, ptr, ptr, ptr, ptr, ptr, ptr, ptr, ptr, ptr, ptr, ptr, ptr, ptr, ptr, ptr, ptr, ptr, ptr, ptr, ptr, ptr, ptr, ptr, ptr, ptr, ptr, ptr, ptr, ptr, ptr, ptr, ptr, ptr, ptr, ptr, ptr, ptr, ptr, ptr, ptr, ptr, ptr, ptr, ptr, ptr, ptr, ptr, ptr, ptr, ptr, ptr, ptr, ptr, ptr, ptr, ptr, ptr, ptr, ptr, ptr, ptr, ptr, ptr, ptr, ptr, ptr, ptr }
%struct._PyOnceFlag = type { i8 }
%struct.type_cache = type { [4096 x %struct.type_cache_entry] }
%struct.type_cache_entry = type { i32, ptr, ptr }
%struct.anon.802 = type { i64, [200 x %struct.managed_static_type_state] }
%struct.managed_static_type_state = type { ptr, i32, i32, i32, ptr, ptr, ptr }
%struct.anon.803 = type { i64, i64, [10 x %struct.managed_static_type_state] }
%struct.callable_cache = type { ptr, ptr, ptr, ptr }
%struct._rare_events = type { i8, i8, i8, i8, i8 }
%struct._Py_GlobalMonitors = type { [16 x i8] }
%struct._Py_interp_cached_objects = type { ptr, ptr, ptr, [10 x ptr], ptr, ptr, ptr, ptr, ptr, ptr, ptr }
%struct.anon.805 = type { i32 }
%struct._err_stackitem = type { ptr, ptr }
%struct._pending_calls = type { ptr, %struct.PyMutex, i32, i32, i32, [300 x %struct._pending_call], i32, i32 }
%struct._is = type { %struct._ceval_state, ptr, i64, i64, i32, i64, i32, i32, i32, i64, %struct.pythreads, ptr, ptr, i64, %struct._gc_runtime_state, ptr, ptr, %struct._import_state, %struct._gil_runtime_state, %struct.codecs_state, %struct.PyConfig, i64, ptr, ptr, ptr, ptr, [8 x ptr], i8, i64, [255 x ptr], %struct._PyXI_state_t, ptr, ptr, ptr, %struct._warnings_runtime_state, %struct.atexit_state, %struct._stoptheworld_state, %struct._qsbr_shared, ptr, ptr, [8 x ptr], [8 x ptr], [8 x ptr], i8, i8, %struct._py_object_state, %struct._Py_unicode_state, %struct._Py_long_state, %struct._dtoa_state, %struct._py_func_state, %struct._py_code_state, %struct._Py_dict_state, %struct._Py_exc_state, %struct._Py_mem_interp_free_queue, %struct.ast_state, %struct.types_state, %struct.callable_cache, i8, ptr, i64, %struct._rare_events, ptr, %struct._Py_GlobalMonitors, i8, i8, i64, i64, [8 x [19 x ptr]], [8 x ptr], [8 x i64], %struct._Py_interp_cached_objects, %struct._Py_interp_static_objects, i64, %struct._PyThreadStateImpl }
%struct._ceval_state = type { i64, i32, ptr, i32, %struct._pending_calls }
%struct._gc_runtime_state = type { ptr, i32, i32, i32, %struct.gc_generation, [2 x %struct.gc_generation], %struct.gc_generation, [3 x %struct.gc_generation_stats], i32, ptr, ptr, i64, i64, i32, i32 }
%struct._import_state = type { ptr, ptr, ptr, i32, i32, i32, ptr, %struct._PyRecursiveMutex, %struct.anon.800 }
%struct.anon.800 = type { i32, i64, i32 }
%struct._qsbr_shared = type { i64, i64, ptr, i64, %struct.PyMutex, ptr }
%struct._py_func_state = type { i32, [4096 x %struct._func_version_cache_item] }
%struct._Py_dict_state = type { i32, [8 x ptr] }
%struct._Py_mem_interp_free_queue = type { i32, %struct.PyMutex, %struct.llist_node }
%struct.types_state = type { i32, %struct.type_cache, %struct.anon.802, %struct.anon.803, %struct.PyMutex, [4096 x ptr] }
%struct._Py_interp_static_objects = type { %struct.anon.804 }
%struct.anon.804 = type { i32, %struct.PyGC_Head, %struct.PyHamtObject, %struct.PyBaseExceptionObject }
%struct.PyHamtObject = type { %struct._object, ptr, ptr, i64 }
%struct.PyBaseExceptionObject = type { %struct._object, ptr, ptr, ptr, ptr, ptr, ptr, i8 }
%struct._PyThreadStateImpl = type { %struct._ts, ptr, ptr, ptr, %struct.llist_node }
%struct._ts = type { ptr, ptr, ptr, i64, %struct.anon.805, i32, i32, i32, i32, i32, i32, i32, i32, ptr, ptr, ptr, ptr, ptr, ptr, ptr, ptr, i32, ptr, i64, i64, ptr, i64, i32, ptr, ptr, ptr, i64, i64, ptr, ptr, ptr, %struct._err_stackitem, ptr, i64, ptr, ptr }

@__func__.Py_EndInterpreter = private unnamed_addr constant [18 x i8] c"Py_EndInterpreter\00", align 1
@.str.134 = private unnamed_addr constant [22 x i8] c"thread is not current\00", align 1
@.str.135 = private unnamed_addr constant [25 x i8] c"thread still has a frame\00", align 1
@.str.136 = private unnamed_addr constant [20 x i8] c"not the last thread\00", align 1
@_Py_tss_tstate = external thread_local global ptr, align 8

; Function Attrs: inlinehint nounwind uwtable
define internal void @_Py_atomic_store_uint64_relaxed(ptr noundef %0, i64 noundef %1) #3 {
  %3 = alloca ptr, align 8
  %4 = alloca i64, align 8
  %5 = alloca i64, align 8
  store ptr %0, ptr %3, align 8, !tbaa !259
  store i64 %1, ptr %4, align 8, !tbaa !200
  %6 = load ptr, ptr %3, align 8, !tbaa !259
  %7 = load i64, ptr %4, align 8, !tbaa !200
  store i64 %7, ptr %5, align 8, !tbaa !200
  %8 = load i64, ptr %5, align 8
  store atomic i64 %8, ptr %6 monotonic, align 8
  ret void
}

; Function Attrs: inlinehint nounwind uwtable
define internal void @_Py_atomic_store_ptr_relaxed(ptr noundef %0, ptr noundef %1) #3 {
  %3 = alloca ptr, align 8
  %4 = alloca ptr, align 8
  %5 = alloca ptr, align 8
  store ptr %0, ptr %3, align 8, !tbaa !224
  store ptr %1, ptr %4, align 8, !tbaa !224
  %6 = load ptr, ptr %3, align 8, !tbaa !224
  %7 = load ptr, ptr %4, align 8, !tbaa !224
  store ptr %7, ptr %5, align 8, !tbaa !224
  %8 = load i64, ptr %5, align 8
  store atomic i64 %8, ptr %6 monotonic, align 8
  ret void
}

; Function Attrs: nounwind uwtable
define internal void @finalize_interp_delete(ptr noundef %0) #1 {
  %2 = alloca ptr, align 8
  store ptr %0, ptr %2, align 8, !tbaa !219
  %3 = load ptr, ptr %2, align 8, !tbaa !219
  call void @_PyGILState_Fini(ptr noundef %3)
  %4 = load ptr, ptr %2, align 8, !tbaa !219
  call void @PyInterpreterState_Delete(ptr noundef %4)
  ret void
}

; Function Attrs: inlinehint nounwind uwtable
define internal void @_PyInterpreterState_SetFinalizing(ptr noundef %0, ptr noundef %1) #3 {
  %3 = alloca ptr, align 8
  %4 = alloca ptr, align 8
  store ptr %0, ptr %3, align 8, !tbaa !219
  store ptr %1, ptr %4, align 8, !tbaa !214
  %5 = load ptr, ptr %3, align 8, !tbaa !219
  %6 = getelementptr inbounds nuw %struct._is, ptr %5, i32 0, i32 12
  %7 = load ptr, ptr %4, align 8, !tbaa !214
  call void @_Py_atomic_store_ptr_relaxed(ptr noundef %6, ptr noundef %7)
  %8 = load ptr, ptr %4, align 8, !tbaa !214
  %9 = icmp eq ptr %8, null
  br i1 %9, label %10, label %13

10:                                               ; preds = %2
  %11 = load ptr, ptr %3, align 8, !tbaa !219
  %12 = getelementptr inbounds nuw %struct._is, ptr %11, i32 0, i32 13
  call void @_Py_atomic_store_uint64_relaxed(ptr noundef %12, i64 noundef 0)
  br label %19

13:                                               ; preds = %2
  %14 = load ptr, ptr %3, align 8, !tbaa !219
  %15 = getelementptr inbounds nuw %struct._is, ptr %14, i32 0, i32 13
  %16 = load ptr, ptr %4, align 8, !tbaa !214
  %17 = getelementptr inbounds nuw %struct._ts, ptr %16, i32 0, i32 23
  %18 = load i64, ptr %17, align 8, !tbaa !233
  call void @_Py_atomic_store_uint64_relaxed(ptr noundef %15, i64 noundef %18)
  br label %19

19:                                               ; preds = %13, %10
  ret void
}

; Function Attrs: inlinehint nounwind uwtable
define internal ptr @_PyThreadState_GET() #3 {
  %1 = call align 8 ptr @llvm.threadlocal.address.p0(ptr align 8 @_Py_tss_tstate)
  %2 = load ptr, ptr %1, align 8, !tbaa !214
  ret ptr %2
}

; Function Attrs: nounwind uwtable
define dso_local void @Py_EndInterpreter(ptr noundef %0) #1 {
  %2 = alloca ptr, align 8
  %3 = alloca ptr, align 8
  store ptr %0, ptr %2, align 8, !tbaa !214
  call void @llvm.lifetime.start.p0(i64 8, ptr %3) #14
  %4 = load ptr, ptr %2, align 8, !tbaa !214
  %5 = getelementptr inbounds nuw %struct._ts, ptr %4, i32 0, i32 2
  %6 = load ptr, ptr %5, align 8, !tbaa !215
  store ptr %6, ptr %3, align 8, !tbaa !219
  %7 = load ptr, ptr %2, align 8, !tbaa !214
  %8 = call ptr @_PyThreadState_GET()
  %9 = icmp ne ptr %7, %8
  br i1 %9, label %10, label %11

10:                                               ; preds = %1
  call void @_Py_FatalErrorFunc(ptr noundef @__func__.Py_EndInterpreter, ptr noundef @.str.134) #16
  unreachable

11:                                               ; preds = %1
  %12 = load ptr, ptr %2, align 8, !tbaa !214
  %13 = getelementptr inbounds nuw %struct._ts, ptr %12, i32 0, i32 13
  %14 = load ptr, ptr %13, align 8, !tbaa !229
  %15 = icmp ne ptr %14, null
  br i1 %15, label %16, label %17

16:                                               ; preds = %11
  call void @_Py_FatalErrorFunc(ptr noundef @__func__.Py_EndInterpreter, ptr noundef @.str.135) #16
  unreachable

17:                                               ; preds = %11
  %18 = load ptr, ptr %3, align 8, !tbaa !219
  %19 = getelementptr inbounds nuw %struct._is, ptr %18, i32 0, i32 8
  store i32 1, ptr %19, align 8, !tbaa !222
  %20 = load ptr, ptr %2, align 8, !tbaa !214
  call void @wait_for_thread_shutdown(ptr noundef %20)
  %21 = load ptr, ptr %2, align 8, !tbaa !214
  call void @_Py_FinishPendingCalls(ptr noundef %21)
  %22 = load ptr, ptr %2, align 8, !tbaa !214
  %23 = getelementptr inbounds nuw %struct._ts, ptr %22, i32 0, i32 2
  %24 = load ptr, ptr %23, align 8, !tbaa !215
  call void @_PyAtExit_Call(ptr noundef %24)
  %25 = load ptr, ptr %2, align 8, !tbaa !214
  %26 = load ptr, ptr %3, align 8, !tbaa !219
  %27 = getelementptr inbounds nuw %struct._is, ptr %26, i32 0, i32 10
  %28 = getelementptr inbounds nuw %struct.pythreads, ptr %27, i32 0, i32 1
  %29 = load ptr, ptr %28, align 8, !tbaa !230
  %30 = icmp ne ptr %25, %29
  br i1 %30, label %36, label %31

31:                                               ; preds = %17
  %32 = load ptr, ptr %2, align 8, !tbaa !214
  %33 = getelementptr inbounds nuw %struct._ts, ptr %32, i32 0, i32 1
  %34 = load ptr, ptr %33, align 8, !tbaa !231
  %35 = icmp ne ptr %34, null
  br i1 %35, label %36, label %37

36:                                               ; preds = %31, %17
  call void @_Py_FatalErrorFunc(ptr noundef @__func__.Py_EndInterpreter, ptr noundef @.str.136) #16
  unreachable

37:                                               ; preds = %31
  %38 = load ptr, ptr %3, align 8, !tbaa !219
  %39 = load ptr, ptr %2, align 8, !tbaa !214
  call void @_PyInterpreterState_SetFinalizing(ptr noundef %38, ptr noundef %39)
  %40 = load ptr, ptr %2, align 8, !tbaa !214
  %41 = getelementptr inbounds nuw %struct._ts, ptr %40, i32 0, i32 2
  %42 = load ptr, ptr %41, align 8, !tbaa !215
  call void @_PyImport_FiniExternal(ptr noundef %42)
  %43 = load ptr, ptr %2, align 8, !tbaa !214
  call void @finalize_modules(ptr noundef %43)
  %44 = load ptr, ptr %2, align 8, !tbaa !214
  %45 = getelementptr inbounds nuw %struct._ts, ptr %44, i32 0, i32 2
  %46 = load ptr, ptr %45, align 8, !tbaa !215
  call void @_PyImport_FiniCore(ptr noundef %46)
  %47 = load ptr, ptr %2, align 8, !tbaa !214
  call void @finalize_interp_clear(ptr noundef %47)
  %48 = load ptr, ptr %2, align 8, !tbaa !214
  %49 = getelementptr inbounds nuw %struct._ts, ptr %48, i32 0, i32 2
  %50 = load ptr, ptr %49, align 8, !tbaa !215
  call void @finalize_interp_delete(ptr noundef %50)
  call void @llvm.lifetime.end.p0(i64 8, ptr %3) #14
  ret void
}