; Function Attrs: nounwind uwtable
define dso_local void @Py_EndInterpreter(ptr noundef %0) local_unnamed_addr #1 {
  %2 = getelementptr inbounds nuw i8, ptr %0, i64 16
  %3 = load ptr, ptr %2, align 8, !tbaa !228
  %4 = tail call align 8 ptr @llvm.threadlocal.address.p0(ptr align 8 @_Py_tss_tstate)
  %5 = load ptr, ptr %4, align 8, !tbaa !212
  %.not = icmp eq ptr %0, %5
  br i1 %.not, label %7, label %6

6:                                                ; preds = %1
  tail call void @_Py_FatalErrorFunc(ptr noundef nonnull @__func__.Py_EndInterpreter, ptr noundef nonnull @.str.134) #27
  unreachable

7:                                                ; preds = %1
  %8 = getelementptr inbounds nuw i8, ptr %0, i64 72
  %9 = load ptr, ptr %8, align 8, !tbaa !276
  %.not17 = icmp eq ptr %9, null
  br i1 %.not17, label %11, label %10

10:                                               ; preds = %7
  tail call void @_Py_FatalErrorFunc(ptr noundef nonnull @__func__.Py_EndInterpreter, ptr noundef nonnull @.str.135) #27
  unreachable

11:                                               ; preds = %7
  %12 = getelementptr inbounds nuw i8, ptr %3, i64 7312
  store i32 1, ptr %12, align 8, !tbaa !247
  tail call fastcc void @wait_for_thread_shutdown(ptr noundef nonnull %0)
  tail call void @_Py_FinishPendingCalls(ptr noundef nonnull %0) #23
  %13 = load ptr, ptr %2, align 8, !tbaa !228
  tail call void @_PyAtExit_Call(ptr noundef %13) #23
  %14 = getelementptr inbounds nuw i8, ptr %3, i64 7336
  %15 = load ptr, ptr %14, align 8, !tbaa !253
  %.not18 = icmp eq ptr %0, %15
  br i1 %.not18, label %16, label %19

16:                                               ; preds = %11
  %17 = getelementptr inbounds nuw i8, ptr %0, i64 8
  %18 = load ptr, ptr %17, align 8, !tbaa !277
  %.not19 = icmp eq ptr %18, null
  br i1 %.not19, label %_PyInterpreterState_SetFinalizing.exit, label %19

19:                                               ; preds = %16, %11
  tail call void @_Py_FatalErrorFunc(ptr noundef nonnull @__func__.Py_EndInterpreter, ptr noundef nonnull @.str.136) #27
  unreachable

_PyInterpreterState_SetFinalizing.exit:           ; preds = %16
  %20 = getelementptr inbounds nuw i8, ptr %3, i64 7384
  %21 = ptrtoint ptr %0 to i64
  store atomic i64 %21, ptr %20 monotonic, align 8
  %22 = getelementptr inbounds nuw i8, ptr %0, i64 152
  %23 = load i64, ptr %22, align 8, !tbaa !249
  %24 = getelementptr inbounds nuw i8, ptr %3, i64 7392
  store atomic i64 %23, ptr %24 monotonic, align 8
  %25 = load ptr, ptr %2, align 8, !tbaa !228
  tail call void @_PyImport_FiniExternal(ptr noundef %25) #23
  tail call fastcc void @finalize_modules(ptr noundef nonnull %0)
  %26 = load ptr, ptr %2, align 8, !tbaa !228
  tail call void @_PyImport_FiniCore(ptr noundef %26) #23
  tail call fastcc void @finalize_interp_clear(ptr noundef nonnull %0)
  %27 = load ptr, ptr %2, align 8, !tbaa !228
  tail call void @_PyGILState_Fini(ptr noundef %27) #23
  tail call void @PyInterpreterState_Delete(ptr noundef %27) #23
  ret void
}